target datalayout = "e-m:e-p270:32:32-p271:32:32-p272:64:64-i64:64-i128:128-f80:128-n8:16:32:64-S128"
target triple = "x86_64-pc-linux-gnu"

%"class.llvm::SmallVectorBase" = type { ptr, i32, i32 }
%"class.llvm::StringRef" = type { ptr, i64 }
%"class.llvm::gi::PredicateMatcher" = type <{ ptr, i32, i32, i32, [4 x i8] }>
%"class.llvm::gi::PredicateMatcher.base" = type <{ ptr, i32, i32, i32 }>
%"class.llvm::gi::InstructionPredicateMatcher.base" = type { %"class.llvm::gi::PredicateMatcher.base" }
%"class.llvm::gi::MIFlagsInstructionPredicateMatcher" = type <{ %"class.llvm::gi::InstructionPredicateMatcher.base", [4 x i8], %"class.llvm::SmallVector.432", i8, [7 x i8] }>
%"class.llvm::SmallVector.432" = type { %"class.llvm::SmallVectorImpl.433", %"struct.llvm::SmallVectorStorage.436" }
%"class.llvm::SmallVectorImpl.433" = type { %"class.llvm::SmallVectorTemplateBase.434" }
%"class.llvm::SmallVectorTemplateBase.434" = type { %"class.llvm::SmallVectorTemplateCommon.435" }
%"class.llvm::SmallVectorTemplateCommon.435" = type { %"class.llvm::SmallVectorBase" }
%"struct.llvm::SmallVectorStorage.436" = type { [32 x i8] }

; Function Attrs: mustprogress nounwind uwtable
define linkonce_odr hidden noundef ptr @_ZNK4llvm9StringRef4dataEv(ptr noundef nonnull align 8 dereferenceable(16) %0) #1 comdat align 2 {
  %2 = alloca ptr, align 8
  store ptr %0, ptr %2, align 8
  %3 = load ptr, ptr %2, align 8
  %4 = getelementptr inbounds nuw %"class.llvm::StringRef", ptr %3, i32 0, i32 0
  %5 = load ptr, ptr %4, align 8
  ret ptr %5
}

; Function Attrs: mustprogress nounwind uwtable
define linkonce_odr hidden noundef zeroext i1 @_ZNK4llvm9StringRef5emptyEv(ptr noundef nonnull align 8 dereferenceable(16) %0) #1 comdat align 2 {
  %2 = alloca ptr, align 8
  store ptr %0, ptr %2, align 8
  %3 = load ptr, ptr %2, align 8
  %4 = getelementptr inbounds nuw %"class.llvm::StringRef", ptr %3, i32 0, i32 1
  %5 = load i64, ptr %4, align 8
  %6 = icmp eq i64 %5, 0
  ret i1 %6
}

; Function Attrs: mustprogress nounwind uwtable
define linkonce_odr hidden noundef i64 @_ZNK4llvm9StringRef4sizeEv(ptr noundef nonnull align 8 dereferenceable(16) %0) #1 comdat align 2 {
  %2 = alloca ptr, align 8
  store ptr %0, ptr %2, align 8
  %3 = load ptr, ptr %2, align 8
  %4 = getelementptr inbounds nuw %"class.llvm::StringRef", ptr %3, i32 0, i32 1
  %5 = load i64, ptr %4, align 8
  ret i64 %5
}

; Function Attrs: mustprogress nounwind uwtable
define linkonce_odr hidden noundef zeroext i1 @_ZN4llvmeqENS_9StringRefES0_(ptr %0, i64 %1, ptr %2, i64 %3) #1 comdat {
  %5 = alloca i1, align 1
  %6 = alloca %"class.llvm::StringRef", align 8
  %7 = alloca %"class.llvm::StringRef", align 8
  %8 = getelementptr inbounds nuw { ptr, i64 }, ptr %6, i32 0, i32 0
  store ptr %0, ptr %8, align 8
  %9 = getelementptr inbounds nuw { ptr, i64 }, ptr %6, i32 0, i32 1
  store i64 %1, ptr %9, align 8
  %10 = getelementptr inbounds nuw { ptr, i64 }, ptr %7, i32 0, i32 0
  store ptr %2, ptr %10, align 8
  %11 = getelementptr inbounds nuw { ptr, i64 }, ptr %7, i32 0, i32 1
  store i64 %3, ptr %11, align 8
  %12 = call noundef i64 @_ZNK4llvm9StringRef4sizeEv(ptr noundef nonnull align 8 dereferenceable(16) %6)
  %13 = call noundef i64 @_ZNK4llvm9StringRef4sizeEv(ptr noundef nonnull align 8 dereferenceable(16) %7)
  %14 = icmp ne i64 %12, %13
  br i1 %14, label %15, label %16

15:                                               ; preds = %4
  store i1 false, ptr %5, align 1
  br label %25

16:                                               ; preds = %4
  %17 = call noundef zeroext i1 @_ZNK4llvm9StringRef5emptyEv(ptr noundef nonnull align 8 dereferenceable(16) %6)
  br i1 %17, label %18, label %19

18:                                               ; preds = %16
  store i1 true, ptr %5, align 1
  br label %25

19:                                               ; preds = %16
  %20 = call noundef ptr @_ZNK4llvm9StringRef4dataEv(ptr noundef nonnull align 8 dereferenceable(16) %6)
  %21 = call noundef ptr @_ZNK4llvm9StringRef4dataEv(ptr noundef nonnull align 8 dereferenceable(16) %7)
  %22 = call noundef i64 @_ZNK4llvm9StringRef4sizeEv(ptr noundef nonnull align 8 dereferenceable(16) %6)
  %23 = call i32 @memcmp(ptr noundef %20, ptr noundef %21, i64 noundef %22) #19
  %24 = icmp eq i32 %23, 0
  store i1 %24, ptr %5, align 1
  br label %25

25:                                               ; preds = %19, %18, %15
  %26 = load i1, ptr %5, align 1
  ret i1 %26
}

; Function Attrs: mustprogress nounwind uwtable
define linkonce_odr hidden noundef zeroext i1 @_ZNSt7__equalILb0EE5equalIPKN4llvm9StringRefES5_EEbT_S6_T0_(ptr noundef %0, ptr noundef %1, ptr noundef %2) #1 comdat align 2 {
  %4 = alloca i1, align 1
  %5 = alloca ptr, align 8
  %6 = alloca ptr, align 8
  %7 = alloca ptr, align 8
  %8 = alloca %"class.llvm::StringRef", align 8
  %9 = alloca %"class.llvm::StringRef", align 8
  store ptr %0, ptr %5, align 8
  store ptr %1, ptr %6, align 8
  store ptr %2, ptr %7, align 8
  br label %10

10:                                               ; preds = %28, %3
  %11 = load ptr, ptr %5, align 8
  %12 = load ptr, ptr %6, align 8
  %13 = icmp ne ptr %11, %12
  br i1 %13, label %14, label %33

14:                                               ; preds = %10
  %15 = load ptr, ptr %5, align 8
  call void @llvm.memcpy.p0.p0.i64(ptr align 8 %8, ptr align 8 %15, i64 16, i1 false)
  %16 = load ptr, ptr %7, align 8
  call void @llvm.memcpy.p0.p0.i64(ptr align 8 %9, ptr align 8 %16, i64 16, i1 false)
  %17 = getelementptr inbounds nuw { ptr, i64 }, ptr %8, i32 0, i32 0
  %18 = load ptr, ptr %17, align 8
  %19 = getelementptr inbounds nuw { ptr, i64 }, ptr %8, i32 0, i32 1
  %20 = load i64, ptr %19, align 8
  %21 = getelementptr inbounds nuw { ptr, i64 }, ptr %9, i32 0, i32 0
  %22 = load ptr, ptr %21, align 8
  %23 = getelementptr inbounds nuw { ptr, i64 }, ptr %9, i32 0, i32 1
  %24 = load i64, ptr %23, align 8
  %25 = call noundef zeroext i1 @_ZN4llvmeqENS_9StringRefES0_(ptr %18, i64 %20, ptr %22, i64 %24)
  br i1 %25, label %27, label %26

26:                                               ; preds = %14
  store i1 false, ptr %4, align 1
  br label %34

27:                                               ; preds = %14
  br label %28

28:                                               ; preds = %27
  %29 = load ptr, ptr %5, align 8
  %30 = getelementptr inbounds %"class.llvm::StringRef", ptr %29, i32 1
  store ptr %30, ptr %5, align 8
  %31 = load ptr, ptr %7, align 8
  %32 = getelementptr inbounds %"class.llvm::StringRef", ptr %31, i32 1
  store ptr %32, ptr %7, align 8
  br label %10, !llvm.loop !178

33:                                               ; preds = %10
  store i1 true, ptr %4, align 1
  br label %34

34:                                               ; preds = %33, %26
  %35 = load i1, ptr %4, align 1
  ret i1 %35
}

; Function Attrs: mustprogress nounwind uwtable
define linkonce_odr noundef zeroext i1 @_ZSt12__equal_aux1IPKN4llvm9StringRefES3_EbT_S4_T0_(ptr noundef %0, ptr noundef %1, ptr noundef %2) #1 comdat {
  %4 = alloca ptr, align 8
  %5 = alloca ptr, align 8
  %6 = alloca ptr, align 8
  %7 = alloca i8, align 1
  store ptr %0, ptr %4, align 8
  store ptr %1, ptr %5, align 8
  store ptr %2, ptr %6, align 8
  store i8 0, ptr %7, align 1
  %8 = load ptr, ptr %4, align 8
  %9 = load ptr, ptr %5, align 8
  %10 = load ptr, ptr %6, align 8
  %11 = call noundef zeroext i1 @_ZNSt7__equalILb0EE5equalIPKN4llvm9StringRefES5_EEbT_S6_T0_(ptr noundef %8, ptr noundef %9, ptr noundef %10)
  ret i1 %11
}

; Function Attrs: mustprogress nounwind uwtable
define linkonce_odr noundef ptr @_ZSt12__niter_baseIPKN4llvm9StringRefEET_S4_(ptr noundef %0) #1 comdat {
  %2 = alloca ptr, align 8
  store ptr %0, ptr %2, align 8
  %3 = load ptr, ptr %2, align 8
  ret ptr %3
}

; Function Attrs: mustprogress nounwind uwtable
define linkonce_odr noundef zeroext i1 @_ZSt11__equal_auxIPKN4llvm9StringRefES3_EbT_S4_T0_(ptr noundef %0, ptr noundef %1, ptr noundef %2) #1 comdat {
  %4 = alloca ptr, align 8
  %5 = alloca ptr, align 8
  %6 = alloca ptr, align 8
  store ptr %0, ptr %4, align 8
  store ptr %1, ptr %5, align 8
  store ptr %2, ptr %6, align 8
  %7 = load ptr, ptr %4, align 8
  %8 = call noundef ptr @_ZSt12__niter_baseIPKN4llvm9StringRefEET_S4_(ptr noundef %7) #5
  %9 = load ptr, ptr %5, align 8
  %10 = call noundef ptr @_ZSt12__niter_baseIPKN4llvm9StringRefEET_S4_(ptr noundef %9) #5
  %11 = load ptr, ptr %6, align 8
  %12 = call noundef ptr @_ZSt12__niter_baseIPKN4llvm9StringRefEET_S4_(ptr noundef %11) #5
  %13 = call noundef zeroext i1 @_ZSt12__equal_aux1IPKN4llvm9StringRefES3_EbT_S4_T0_(ptr noundef %8, ptr noundef %10, ptr noundef %12)
  ret i1 %13
}

; Function Attrs: mustprogress nounwind uwtable
define linkonce_odr noundef zeroext i1 @_ZSt5equalIPKN4llvm9StringRefES3_EbT_S4_T0_(ptr noundef %0, ptr noundef %1, ptr noundef %2) #1 comdat {
  %4 = alloca ptr, align 8
  %5 = alloca ptr, align 8
  %6 = alloca ptr, align 8
  store ptr %0, ptr %4, align 8
  store ptr %1, ptr %5, align 8
  store ptr %2, ptr %6, align 8
  %7 = load ptr, ptr %4, align 8
  %8 = load ptr, ptr %5, align 8
  %9 = load ptr, ptr %6, align 8
  %10 = call noundef zeroext i1 @_ZSt11__equal_auxIPKN4llvm9StringRefES3_EbT_S4_T0_(ptr noundef %7, ptr noundef %8, ptr noundef %9)
  ret i1 %10
}

; Function Attrs: mustprogress nounwind uwtable
define linkonce_odr hidden noundef ptr @_ZNK4llvm25SmallVectorTemplateCommonINS_9StringRefEvE3endEv(ptr noundef nonnull align 8 dereferenceable(16) %0) #1 comdat align 2 {
  %2 = alloca ptr, align 8
  store ptr %0, ptr %2, align 8
  %3 = load ptr, ptr %2, align 8
  %4 = call noundef ptr @_ZNK4llvm25SmallVectorTemplateCommonINS_9StringRefEvE5beginEv(ptr noundef nonnull align 8 dereferenceable(16) %3)
  %5 = call noundef i64 @_ZNK4llvm15SmallVectorBaseIjE4sizeEv(ptr noundef nonnull align 8 dereferenceable(16) %3)
  %6 = getelementptr inbounds %"class.llvm::StringRef", ptr %4, i64 %5
  ret ptr %6
}

; Function Attrs: mustprogress nounwind uwtable
define linkonce_odr hidden noundef ptr @_ZNK4llvm25SmallVectorTemplateCommonINS_9StringRefEvE5beginEv(ptr noundef nonnull align 8 dereferenceable(16) %0) #1 comdat align 2 {
  %2 = alloca ptr, align 8
  store ptr %0, ptr %2, align 8
  %3 = load ptr, ptr %2, align 8
  %4 = getelementptr inbounds nuw %"class.llvm::SmallVectorBase", ptr %3, i32 0, i32 0
  %5 = load ptr, ptr %4, align 8
  ret ptr %5
}

; Function Attrs: mustprogress nounwind uwtable
define linkonce_odr hidden noundef i32 @_ZNK4llvm2gi16PredicateMatcher7getKindEv(ptr noundef nonnull align 8 dereferenceable(20) %0) #1 comdat align 2 {
  %2 = alloca ptr, align 8
  store ptr %0, ptr %2, align 8
  %3 = load ptr, ptr %2, align 8
  %4 = getelementptr inbounds nuw %"class.llvm::gi::PredicateMatcher", ptr %3, i32 0, i32 1
  %5 = load i32, ptr %4, align 8
  ret i32 %5
}

; Function Attrs: mustprogress nounwind uwtable
define linkonce_odr hidden noundef zeroext i1 @_ZNK4llvm15SmallVectorImplINS_9StringRefEEeqERKS2_(ptr noundef nonnull align 8 dereferenceable(16) %0, ptr noundef nonnull align 8 dereferenceable(16) %1) #1 comdat align 2 {
  %3 = alloca i1, align 1
  %4 = alloca ptr, align 8
  %5 = alloca ptr, align 8
  store ptr %0, ptr %4, align 8
  store ptr %1, ptr %5, align 8
  %6 = load ptr, ptr %4, align 8
  %7 = call noundef i64 @_ZNK4llvm15SmallVectorBaseIjE4sizeEv(ptr noundef nonnull align 8 dereferenceable(16) %6)
  %8 = load ptr, ptr %5, align 8
  %9 = call noundef i64 @_ZNK4llvm15SmallVectorBaseIjE4sizeEv(ptr noundef nonnull align 8 dereferenceable(16) %8)
  %10 = icmp ne i64 %7, %9
  br i1 %10, label %11, label %12

11:                                               ; preds = %2
  store i1 false, ptr %3, align 1
  br label %18

12:                                               ; preds = %2
  %13 = call noundef ptr @_ZNK4llvm25SmallVectorTemplateCommonINS_9StringRefEvE5beginEv(ptr noundef nonnull align 8 dereferenceable(16) %6)
  %14 = call noundef ptr @_ZNK4llvm25SmallVectorTemplateCommonINS_9StringRefEvE3endEv(ptr noundef nonnull align 8 dereferenceable(16) %6)
  %15 = load ptr, ptr %5, align 8
  %16 = call noundef ptr @_ZNK4llvm25SmallVectorTemplateCommonINS_9StringRefEvE5beginEv(ptr noundef nonnull align 8 dereferenceable(16) %15)
  %17 = call noundef zeroext i1 @_ZSt5equalIPKN4llvm9StringRefES3_EbT_S4_T0_(ptr noundef %13, ptr noundef %14, ptr noundef %16)
  store i1 %17, ptr %3, align 1
  br label %18

18:                                               ; preds = %12, %11
  %19 = load i1, ptr %3, align 1
  ret i1 %19
}

; Function Attrs: mustprogress nounwind uwtable
define linkonce_odr hidden noundef zeroext i1 @_ZNK4llvm2gi16PredicateMatcher11isIdenticalERKS1_(ptr noundef nonnull align 8 dereferenceable(20) %0, ptr noundef nonnull align 8 dereferenceable(20) %1) unnamed_addr #1 comdat align 2 {
  %3 = alloca ptr, align 8
  %4 = alloca ptr, align 8
  store ptr %0, ptr %3, align 8
  store ptr %1, ptr %4, align 8
  %5 = load ptr, ptr %3, align 8
  %6 = load ptr, ptr %4, align 8
  %7 = call noundef i32 @_ZNK4llvm2gi16PredicateMatcher7getKindEv(ptr noundef nonnull align 8 dereferenceable(20) %6)
  %8 = call noundef i32 @_ZNK4llvm2gi16PredicateMatcher7getKindEv(ptr noundef nonnull align 8 dereferenceable(20) %5)
  %9 = icmp eq i32 %7, %8
  br i1 %9, label %10, label %24

10:                                               ; preds = %2
  %11 = getelementptr inbounds nuw %"class.llvm::gi::PredicateMatcher", ptr %5, i32 0, i32 2
  %12 = load i32, ptr %11, align 4
  %13 = load ptr, ptr %4, align 8
  %14 = getelementptr inbounds nuw %"class.llvm::gi::PredicateMatcher", ptr %13, i32 0, i32 2
  %15 = load i32, ptr %14, align 4
  %16 = icmp eq i32 %12, %15
  br i1 %16, label %17, label %24

17:                                               ; preds = %10
  %18 = getelementptr inbounds nuw %"class.llvm::gi::PredicateMatcher", ptr %5, i32 0, i32 3
  %19 = load i32, ptr %18, align 8
  %20 = load ptr, ptr %4, align 8
  %21 = getelementptr inbounds nuw %"class.llvm::gi::PredicateMatcher", ptr %20, i32 0, i32 3
  %22 = load i32, ptr %21, align 8
  %23 = icmp eq i32 %19, %22
  br label %24

24:                                               ; preds = %17, %10, %2
  %25 = phi i1 [ false, %10 ], [ false, %2 ], [ %23, %17 ]
  ret i1 %25
}

; Function Attrs: mustprogress nounwind uwtable
define dso_local noundef zeroext i1 @_ZNK4llvm2gi34MIFlagsInstructionPredicateMatcher11isIdenticalERKNS0_16PredicateMatcherE(ptr noundef nonnull align 8 dereferenceable(73) %0, ptr noundef nonnull align 8 dereferenceable(20) %1) unnamed_addr #1 align 2 {
  %3 = alloca i1, align 1
  %4 = alloca ptr, align 8
  %5 = alloca ptr, align 8
  %6 = alloca ptr, align 8
  store ptr %0, ptr %4, align 8
  store ptr %1, ptr %5, align 8
  %7 = load ptr, ptr %4, align 8
  %8 = load ptr, ptr %5, align 8
  %9 = call noundef zeroext i1 @_ZNK4llvm2gi16PredicateMatcher11isIdenticalERKS1_(ptr noundef nonnull align 8 dereferenceable(20) %7, ptr noundef nonnull align 8 dereferenceable(20) %8)
  br i1 %9, label %11, label %10

10:                                               ; preds = %2
  store i1 false, ptr %3, align 1
  br label %30

11:                                               ; preds = %2
  %12 = load ptr, ptr %5, align 8
  store ptr %12, ptr %6, align 8
  %13 = getelementptr inbounds nuw %"class.llvm::gi::MIFlagsInstructionPredicateMatcher", ptr %7, i32 0, i32 2
  %14 = load ptr, ptr %6, align 8
  %15 = getelementptr inbounds nuw %"class.llvm::gi::MIFlagsInstructionPredicateMatcher", ptr %14, i32 0, i32 2
  %16 = call noundef zeroext i1 @_ZNK4llvm15SmallVectorImplINS_9StringRefEEeqERKS2_(ptr noundef nonnull align 8 dereferenceable(16) %13, ptr noundef nonnull align 8 dereferenceable(16) %15)
  br i1 %16, label %17, label %28

17:                                               ; preds = %11
  %18 = getelementptr inbounds nuw %"class.llvm::gi::MIFlagsInstructionPredicateMatcher", ptr %7, i32 0, i32 3
  %19 = load i8, ptr %18, align 8
  %20 = trunc i8 %19 to i1
  %21 = zext i1 %20 to i32
  %22 = load ptr, ptr %6, align 8
  %23 = getelementptr inbounds nuw %"class.llvm::gi::MIFlagsInstructionPredicateMatcher", ptr %22, i32 0, i32 3
  %24 = load i8, ptr %23, align 8
  %25 = trunc i8 %24 to i1
  %26 = zext i1 %25 to i32
  %27 = icmp eq i32 %21, %26
  br label %28

28:                                               ; preds = %17, %11
  %29 = phi i1 [ false, %11 ], [ %27, %17 ]
  store i1 %29, ptr %3, align 1
  br label %30

30:                                               ; preds = %28, %10
  %31 = load i1, ptr %3, align 1
  ret i1 %31
}