; Function Attrs: mustprogress nounwind uwtable
define dso_local noundef zeroext i1 @_ZNK4llvm2gi34MIFlagsInstructionPredicateMatcher11isIdenticalERKNS0_16PredicateMatcherE(ptr noundef nonnull align 8 dereferenceable(73) %0, ptr noundef nonnull align 8 dereferenceable(20) %1) unnamed_addr #0 align 2 {
  %3 = getelementptr inbounds nuw i8, ptr %1, i64 8
  %4 = load i32, ptr %3, align 8
  %5 = getelementptr inbounds nuw i8, ptr %0, i64 8
  %6 = load i32, ptr %5, align 8
  %7 = icmp eq i32 %4, %6
  br i1 %7, label %8, label %_ZNK4llvm2gi16PredicateMatcher11isIdenticalERKS1_.exit.thread

8:                                                ; preds = %2
  %9 = getelementptr inbounds nuw i8, ptr %0, i64 12
  %10 = load i32, ptr %9, align 4
  %11 = getelementptr inbounds nuw i8, ptr %1, i64 12
  %12 = load i32, ptr %11, align 4
  %13 = icmp eq i32 %10, %12
  br i1 %13, label %_ZNK4llvm2gi16PredicateMatcher11isIdenticalERKS1_.exit, label %_ZNK4llvm2gi16PredicateMatcher11isIdenticalERKS1_.exit.thread

_ZNK4llvm2gi16PredicateMatcher11isIdenticalERKS1_.exit: ; preds = %8
  %14 = getelementptr inbounds nuw i8, ptr %0, i64 16
  %15 = load i32, ptr %14, align 8
  %16 = getelementptr inbounds nuw i8, ptr %1, i64 16
  %17 = load i32, ptr %16, align 8
  %18 = icmp eq i32 %15, %17
  br i1 %18, label %19, label %_ZNK4llvm2gi16PredicateMatcher11isIdenticalERKS1_.exit.thread

19:                                               ; preds = %_ZNK4llvm2gi16PredicateMatcher11isIdenticalERKS1_.exit
  %20 = getelementptr inbounds nuw i8, ptr %0, i64 24
  %21 = getelementptr inbounds nuw i8, ptr %1, i64 24
  %22 = tail call noundef i64 @_ZNK4llvm15SmallVectorBaseIjE4sizeEv(ptr noundef nonnull align 8 dereferenceable(16) %20) #30
  %23 = tail call noundef i64 @_ZNK4llvm15SmallVectorBaseIjE4sizeEv(ptr noundef nonnull align 8 dereferenceable(16) %21) #30
  %.not.i = icmp eq i64 %22, %23
  br i1 %.not.i, label %24, label %_ZNK4llvm2gi16PredicateMatcher11isIdenticalERKS1_.exit.thread

24:                                               ; preds = %19
  %25 = load ptr, ptr %20, align 8
  %26 = tail call noundef i64 @_ZNK4llvm15SmallVectorBaseIjE4sizeEv(ptr noundef nonnull align 8 dereferenceable(16) %20) #30
  %27 = getelementptr inbounds %"class.llvm::StringRef", ptr %25, i64 %26
  %.not14.i.i.i.i.i = icmp eq i64 %26, 0
  br i1 %.not14.i.i.i.i.i, label %_ZNK4llvm15SmallVectorImplINS_9StringRefEEeqERKS2_.exit, label %.lr.ph.i.i.i.i.preheader.i

.lr.ph.i.i.i.i.preheader.i:                       ; preds = %24
  %28 = load ptr, ptr %21, align 8
  br label %.lr.ph.i.i.i.i.i

.lr.ph.i.i.i.i.i:                                 ; preds = %_ZN4llvmeqENS_9StringRefES0_.exit.thread.i.i.i.i.i, %.lr.ph.i.i.i.i.preheader.i
  %.0916.i.i.i.i.i = phi ptr [ %32, %_ZN4llvmeqENS_9StringRefES0_.exit.thread.i.i.i.i.i ], [ %25, %.lr.ph.i.i.i.i.preheader.i ]
  %.01015.i.i.i.i.i = phi ptr [ %33, %_ZN4llvmeqENS_9StringRefES0_.exit.thread.i.i.i.i.i ], [ %28, %.lr.ph.i.i.i.i.preheader.i ]
  %.sroa.01.0.copyload.i.i.i.i.i = load ptr, ptr %.0916.i.i.i.i.i, align 8
  %.sroa.22.0..sroa_idx.i.i.i.i.i = getelementptr inbounds i8, ptr %.0916.i.i.i.i.i, i64 8
  %.sroa.22.0.copyload.i.i.i.i.i = load i64, ptr %.sroa.22.0..sroa_idx.i.i.i.i.i, align 8
  %.sroa.0.0.copyload.i.i.i.i.i = load ptr, ptr %.01015.i.i.i.i.i, align 8
  %.sroa.2.0..sroa_idx.i.i.i.i.i = getelementptr inbounds i8, ptr %.01015.i.i.i.i.i, i64 8
  %.sroa.2.0.copyload.i.i.i.i.i = load i64, ptr %.sroa.2.0..sroa_idx.i.i.i.i.i, align 8
  %.not.i.i.i.i.i.i = icmp eq i64 %.sroa.22.0.copyload.i.i.i.i.i, %.sroa.2.0.copyload.i.i.i.i.i
  br i1 %.not.i.i.i.i.i.i, label %29, label %_ZNK4llvm2gi16PredicateMatcher11isIdenticalERKS1_.exit.thread

29:                                               ; preds = %.lr.ph.i.i.i.i.i
  %30 = icmp eq i64 %.sroa.22.0.copyload.i.i.i.i.i, 0
  br i1 %30, label %_ZN4llvmeqENS_9StringRefES0_.exit.thread.i.i.i.i.i, label %_ZN4llvmeqENS_9StringRefES0_.exit.i.i.i.i.i

_ZN4llvmeqENS_9StringRefES0_.exit.i.i.i.i.i:      ; preds = %29
  %bcmp.i.i.i.i.i.i = tail call i32 @bcmp(ptr %.sroa.01.0.copyload.i.i.i.i.i, ptr %.sroa.0.0.copyload.i.i.i.i.i, i64 %.sroa.22.0.copyload.i.i.i.i.i)
  %31 = icmp eq i32 %bcmp.i.i.i.i.i.i, 0
  br i1 %31, label %_ZN4llvmeqENS_9StringRefES0_.exit.thread.i.i.i.i.i, label %_ZNK4llvm2gi16PredicateMatcher11isIdenticalERKS1_.exit.thread

_ZN4llvmeqENS_9StringRefES0_.exit.thread.i.i.i.i.i: ; preds = %_ZN4llvmeqENS_9StringRefES0_.exit.i.i.i.i.i, %29
  %32 = getelementptr inbounds i8, ptr %.0916.i.i.i.i.i, i64 16
  %33 = getelementptr inbounds i8, ptr %.01015.i.i.i.i.i, i64 16
  %.not.i.i.i.i.i = icmp eq ptr %32, %27
  br i1 %.not.i.i.i.i.i, label %_ZNK4llvm15SmallVectorImplINS_9StringRefEEeqERKS2_.exit, label %.lr.ph.i.i.i.i.i, !llvm.loop !1156

_ZNK4llvm15SmallVectorImplINS_9StringRefEEeqERKS2_.exit: ; preds = %_ZN4llvmeqENS_9StringRefES0_.exit.thread.i.i.i.i.i, %24
  %34 = getelementptr inbounds nuw i8, ptr %0, i64 72
  %35 = load i8, ptr %34, align 8
  %36 = getelementptr inbounds nuw i8, ptr %1, i64 72
  %37 = load i8, ptr %36, align 8
  %38 = xor i8 %37, %35
  %39 = and i8 %38, 1
  %40 = icmp eq i8 %39, 0
  br label %_ZNK4llvm2gi16PredicateMatcher11isIdenticalERKS1_.exit.thread

_ZNK4llvm2gi16PredicateMatcher11isIdenticalERKS1_.exit.thread: ; preds = %_ZN4llvmeqENS_9StringRefES0_.exit.i.i.i.i.i, %.lr.ph.i.i.i.i.i, %19, %2, %8, %_ZNK4llvm15SmallVectorImplINS_9StringRefEEeqERKS2_.exit, %_ZNK4llvm2gi16PredicateMatcher11isIdenticalERKS1_.exit
  %.0 = phi i1 [ false, %_ZNK4llvm2gi16PredicateMatcher11isIdenticalERKS1_.exit ], [ %40, %_ZNK4llvm15SmallVectorImplINS_9StringRefEEeqERKS2_.exit ], [ false, %8 ], [ false, %2 ], [ false, %19 ], [ false, %.lr.ph.i.i.i.i.i ], [ false, %_ZN4llvmeqENS_9StringRefES0_.exit.i.i.i.i.i ]
  ret i1 %.0
}